target datalayout = "e-m:e-p270:32:32-p271:32:32-p272:64:64-i64:64-i128:128-f80:128-n8:16:32:64-S128"
target triple = "x86_64-pc-linux-gnu"

; Function Attrs: mustprogress uwtable
define noundef zeroext i1 @_ZNK3net18TcpCubicSenderBase13IsCwndLimitedEm(ptr noundef nonnull align 8 dereferenceable(141) %0, i64 noundef %1) #0 align 2 {
  %3 = alloca i1, align 1
  %4 = alloca ptr, align 8
  %5 = alloca i64, align 8
  %6 = alloca i64, align 8
  %7 = alloca i32, align 4
  %8 = alloca i64, align 8
  %9 = alloca i8, align 1
  store ptr %0, ptr %4, align 8, !tbaa !3
  store i64 %1, ptr %5, align 8, !tbaa !56
  %10 = load ptr, ptr %4, align 8
  call void @llvm.lifetime.start.p0(i64 8, ptr %6) #13
  %11 = load ptr, ptr %10, align 8, !tbaa !16
  %12 = getelementptr inbounds ptr, ptr %11, i64 12
  %13 = load ptr, ptr %12, align 8
  %14 = call noundef i64 %13(ptr noundef nonnull align 8 dereferenceable(8) %10)
  store i64 %14, ptr %6, align 8, !tbaa !56
  %15 = load i64, ptr %5, align 8, !tbaa !56
  %16 = load i64, ptr %6, align 8, !tbaa !56
  %17 = icmp uge i64 %15, %16
  br i1 %17, label %18, label %19

18:                                               ; preds = %2
  store i1 true, ptr %3, align 1
  store i32 1, ptr %7, align 4
  br label %42

19:                                               ; preds = %2
  call void @llvm.lifetime.start.p0(i64 8, ptr %8) #13
  %20 = load i64, ptr %6, align 8, !tbaa !56
  %21 = load i64, ptr %5, align 8, !tbaa !56
  %22 = sub i64 %20, %21
  store i64 %22, ptr %8, align 8, !tbaa !56
  call void @llvm.lifetime.start.p0(i64 1, ptr %9) #13
  %23 = load ptr, ptr %10, align 8, !tbaa !16
  %24 = getelementptr inbounds ptr, ptr %23, i64 13
  %25 = load ptr, ptr %24, align 8
  %26 = call noundef zeroext i1 %25(ptr noundef nonnull align 8 dereferenceable(141) %10)
  br i1 %26, label %27, label %32

27:                                               ; preds = %19
  %28 = load i64, ptr %5, align 8, !tbaa !56
  %29 = load i64, ptr %6, align 8, !tbaa !56
  %30 = udiv i64 %29, 2
  %31 = icmp ugt i64 %28, %30
  br label %32

32:                                               ; preds = %27, %19
  %33 = phi i1 [ false, %19 ], [ %31, %27 ]
  %34 = zext i1 %33 to i8
  store i8 %34, ptr %9, align 1, !tbaa !12
  %35 = load i8, ptr %9, align 1, !tbaa !12, !range !29, !noundef !30
  %36 = trunc i8 %35 to i1
  br i1 %36, label %40, label %37

37:                                               ; preds = %32
  %38 = load i64, ptr %8, align 8, !tbaa !56
  %39 = icmp ule i64 %38, 4380
  br label %40

40:                                               ; preds = %37, %32
  %41 = phi i1 [ true, %32 ], [ %39, %37 ]
  store i1 %41, ptr %3, align 1
  store i32 1, ptr %7, align 4
  call void @llvm.lifetime.end.p0(i64 1, ptr %9) #13
  call void @llvm.lifetime.end.p0(i64 8, ptr %8) #13
  br label %42

42:                                               ; preds = %40, %18
  call void @llvm.lifetime.end.p0(i64 8, ptr %6) #13
  %43 = load i1, ptr %3, align 1
  ret i1 %43
}