; Function Attrs: mustprogress uwtable
define noundef zeroext i1 @_ZNK3net18TcpCubicSenderBase13IsCwndLimitedEm(ptr noundef nonnull align 8 dereferenceable(141) %0, i64 noundef %1) local_unnamed_addr #0 align 2 {
  %3 = load ptr, ptr %0, align 8, !tbaa !3
  %4 = getelementptr inbounds nuw i8, ptr %3, i64 96
  %5 = load ptr, ptr %4, align 8
  %6 = tail call noundef i64 %5(ptr noundef nonnull align 8 dereferenceable(8) %0)
  %.not = icmp ult i64 %1, %6
  br i1 %.not, label %7, label %18

7:                                                ; preds = %2
  %8 = sub nuw i64 %6, %1
  %9 = load ptr, ptr %0, align 8, !tbaa !3
  %10 = getelementptr inbounds nuw i8, ptr %9, i64 104
  %11 = load ptr, ptr %10, align 8
  %12 = tail call noundef zeroext i1 %11(ptr noundef nonnull align 8 dereferenceable(141) %0)
  %13 = lshr i64 %6, 1
  %14 = icmp ugt i64 %1, %13
  %15 = and i1 %14, %12
  %16 = icmp ult i64 %8, 4381
  %17 = select i1 %15, i1 true, i1 %16
  br label %18

18:                                               ; preds = %2, %7
  %.0 = phi i1 [ %17, %7 ], [ true, %2 ]
  ret i1 %.0
}